; Function Attrs: nounwind uwtable
define internal void @dissect_swils_dia(ptr noundef %0, ptr readnone captures(none) %1, ptr noundef %2, i8 zeroext %3) #0 {
  %.not = icmp eq ptr %2, null
  br i1 %.not, label %8, label %5

5:                                                ; preds = %4
  %6 = load i32, ptr @hf_swils_dia_switch_name, align 4
  %7 = tail call ptr @proto_tree_add_item(ptr noundef nonnull %2, i32 noundef %6, ptr noundef %0, i32 noundef 4, i32 noundef 8, i32 noundef 0) #7
  br label %8

8:                                                ; preds = %5, %4
  ret void
}